target datalayout = "e-m:e-p270:32:32-p271:32:32-p272:64:64-i64:64-i128:128-f80:128-n8:16:32:64-S128"
target triple = "x86_64-pc-linux-gnu"

@.str.483 = private unnamed_addr constant [27 x i8] c"select preset(s) to import\00", align 1
@.str.484 = private unnamed_addr constant [6 x i8] c"_open\00", align 1
@.str.485 = private unnamed_addr constant [8 x i8] c"_cancel\00", align 1
@.str.486 = private unnamed_addr constant [20 x i8] c"ui_last/import_path\00", align 1
@.str.487 = private unnamed_addr constant [11 x i8] c"*.dtpreset\00", align 1
@.str.488 = private unnamed_addr constant [11 x i8] c"*.DTPRESET\00", align 1
@.str.489 = private unnamed_addr constant [23 x i8] c"darktable preset files\00", align 1
@.str.490 = private unnamed_addr constant [2 x i8] c"*\00", align 1
@.str.491 = private unnamed_addr constant [10 x i8] c"all files\00", align 1

; Function Attrs: inlinehint nounwind uwtable
define internal ptr @GTK_NATIVE_DIALOG(ptr noundef %0) #7 {
  %2 = alloca ptr, align 8
  store ptr %0, ptr %2, align 8, !tbaa !61
  %3 = load ptr, ptr %2, align 8, !tbaa !61
  %4 = call i64 @gtk_native_dialog_get_type()
  %5 = call ptr @g_type_check_instance_cast(ptr noundef %3, i64 noundef %4)
  ret ptr %5
}

; Function Attrs: nounwind uwtable
define internal void @import_preset(ptr noundef %0, ptr noundef %1) #0 {
  %3 = alloca ptr, align 8
  %4 = alloca ptr, align 8
  %5 = alloca ptr, align 8
  %6 = alloca ptr, align 8
  %7 = alloca ptr, align 8
  %8 = alloca ptr, align 8
  %9 = alloca ptr, align 8
  %10 = alloca ptr, align 8
  store ptr %0, ptr %3, align 8, !tbaa !125
  store ptr %1, ptr %4, align 8, !tbaa !61
  call void @llvm.lifetime.start.p0(i64 8, ptr %5) #10
  %11 = load ptr, ptr %4, align 8, !tbaa !61
  store ptr %11, ptr %5, align 8, !tbaa !146
  call void @llvm.lifetime.start.p0(i64 8, ptr %6) #10
  %12 = load ptr, ptr %3, align 8, !tbaa !125
  %13 = call i64 @gtk_widget_get_type() #11
  %14 = call ptr @g_type_check_instance_cast(ptr noundef %12, i64 noundef %13)
  %15 = call ptr @gtk_widget_get_toplevel(ptr noundef %14)
  %16 = call i64 @gtk_window_get_type() #11
  %17 = call ptr @g_type_check_instance_cast(ptr noundef %15, i64 noundef %16)
  store ptr %17, ptr %6, align 8, !tbaa !76
  call void @llvm.lifetime.start.p0(i64 8, ptr %7) #10
  %18 = call ptr @dcgettext(ptr noundef null, ptr noundef @.str.483, i32 noundef 5) #10
  %19 = load ptr, ptr %6, align 8, !tbaa !76
  %20 = call i64 @gtk_window_get_type() #11
  %21 = call ptr @g_type_check_instance_cast(ptr noundef %19, i64 noundef %20)
  %22 = call ptr @dcgettext(ptr noundef null, ptr noundef @.str.484, i32 noundef 5) #10
  %23 = call ptr @dcgettext(ptr noundef null, ptr noundef @.str.485, i32 noundef 5) #10
  %24 = call ptr @gtk_file_chooser_native_new(ptr noundef %18, ptr noundef %21, i32 noundef 0, ptr noundef %22, ptr noundef %23)
  store ptr %24, ptr %7, align 8, !tbaa !150
  %25 = load ptr, ptr %7, align 8, !tbaa !150
  %26 = call i64 @gtk_file_chooser_get_type() #11
  %27 = call ptr @g_type_check_instance_cast(ptr noundef %25, i64 noundef %26)
  %28 = call i32 @dt_conf_get_folder_to_file_chooser(ptr noundef @.str.486, ptr noundef %27)
  %29 = load ptr, ptr %7, align 8, !tbaa !150
  %30 = call i64 @gtk_file_chooser_get_type() #11
  %31 = call ptr @g_type_check_instance_cast(ptr noundef %29, i64 noundef %30)
  call void @gtk_file_chooser_set_select_multiple(ptr noundef %31, i32 noundef 1)
  call void @llvm.lifetime.start.p0(i64 8, ptr %8) #10
  %32 = call ptr @gtk_file_filter_new()
  %33 = call i64 @gtk_file_filter_get_type() #11
  %34 = call ptr @g_type_check_instance_cast(ptr noundef %32, i64 noundef %33)
  store ptr %34, ptr %8, align 8, !tbaa !152
  %35 = load ptr, ptr %8, align 8, !tbaa !152
  call void @gtk_file_filter_add_pattern(ptr noundef %35, ptr noundef @.str.487)
  %36 = load ptr, ptr %8, align 8, !tbaa !152
  call void @gtk_file_filter_add_pattern(ptr noundef %36, ptr noundef @.str.488)
  %37 = load ptr, ptr %8, align 8, !tbaa !152
  %38 = call ptr @dcgettext(ptr noundef null, ptr noundef @.str.489, i32 noundef 5) #10
  call void @gtk_file_filter_set_name(ptr noundef %37, ptr noundef %38)
  %39 = load ptr, ptr %7, align 8, !tbaa !150
  %40 = call i64 @gtk_file_chooser_get_type() #11
  %41 = call ptr @g_type_check_instance_cast(ptr noundef %39, i64 noundef %40)
  %42 = load ptr, ptr %8, align 8, !tbaa !152
  call void @gtk_file_chooser_add_filter(ptr noundef %41, ptr noundef %42)
  %43 = call ptr @gtk_file_filter_new()
  %44 = call i64 @gtk_file_filter_get_type() #11
  %45 = call ptr @g_type_check_instance_cast(ptr noundef %43, i64 noundef %44)
  store ptr %45, ptr %8, align 8, !tbaa !152
  %46 = load ptr, ptr %8, align 8, !tbaa !152
  call void @gtk_file_filter_add_pattern(ptr noundef %46, ptr noundef @.str.490)
  %47 = load ptr, ptr %8, align 8, !tbaa !152
  %48 = call ptr @dcgettext(ptr noundef null, ptr noundef @.str.491, i32 noundef 5) #10
  call void @gtk_file_filter_set_name(ptr noundef %47, ptr noundef %48)
  %49 = load ptr, ptr %7, align 8, !tbaa !150
  %50 = call i64 @gtk_file_chooser_get_type() #11
  %51 = call ptr @g_type_check_instance_cast(ptr noundef %49, i64 noundef %50)
  %52 = load ptr, ptr %8, align 8, !tbaa !152
  call void @gtk_file_chooser_add_filter(ptr noundef %51, ptr noundef %52)
  %53 = load ptr, ptr %7, align 8, !tbaa !150
  %54 = call ptr @GTK_NATIVE_DIALOG(ptr noundef %53)
  %55 = call i32 @gtk_native_dialog_run(ptr noundef %54)
  %56 = icmp eq i32 %55, -3
  br i1 %56, label %57, label %72

57:                                               ; preds = %2
  call void @llvm.lifetime.start.p0(i64 8, ptr %9) #10
  %58 = load ptr, ptr %7, align 8, !tbaa !150
  %59 = call i64 @gtk_file_chooser_get_type() #11
  %60 = call ptr @g_type_check_instance_cast(ptr noundef %58, i64 noundef %59)
  %61 = call ptr @gtk_file_chooser_get_filenames(ptr noundef %60)
  store ptr %61, ptr %9, align 8, !tbaa !154
  %62 = load ptr, ptr %9, align 8, !tbaa !154
  call void @g_slist_foreach(ptr noundef %62, ptr noundef @_import_preset_from_file, ptr noundef null)
  %63 = load ptr, ptr %9, align 8, !tbaa !154
  call void @g_slist_free_full(ptr noundef %63, ptr noundef @g_free)
  call void @llvm.lifetime.start.p0(i64 8, ptr %10) #10
  %64 = load ptr, ptr %5, align 8, !tbaa !146
  %65 = call i64 @gtk_tree_store_get_type() #11
  %66 = call ptr @g_type_check_instance_cast(ptr noundef %64, i64 noundef %65)
  store ptr %66, ptr %10, align 8, !tbaa !105
  %67 = load ptr, ptr %10, align 8, !tbaa !105
  call void @gtk_tree_store_clear(ptr noundef %67)
  %68 = load ptr, ptr %10, align 8, !tbaa !105
  call void @tree_insert_presets(ptr noundef %68)
  %69 = load ptr, ptr %7, align 8, !tbaa !150
  %70 = call i64 @gtk_file_chooser_get_type() #11
  %71 = call ptr @g_type_check_instance_cast(ptr noundef %69, i64 noundef %70)
  call void @dt_conf_set_folder_from_file_chooser(ptr noundef @.str.486, ptr noundef %71)
  call void @llvm.lifetime.end.p0(i64 8, ptr %10) #10
  call void @llvm.lifetime.end.p0(i64 8, ptr %9) #10
  br label %72

72:                                               ; preds = %57, %2
  %73 = load ptr, ptr %7, align 8, !tbaa !150
  call void @g_object_unref(ptr noundef %73)
  call void @llvm.lifetime.end.p0(i64 8, ptr %8) #10
  call void @llvm.lifetime.end.p0(i64 8, ptr %7) #10
  call void @llvm.lifetime.end.p0(i64 8, ptr %6) #10
  call void @llvm.lifetime.end.p0(i64 8, ptr %5) #10
  ret void
}