; Function Attrs: nounwind uwtable
define internal void @import_preset(ptr noundef %0, ptr noundef %1) #0 {
  %3 = tail call i64 @gtk_widget_get_type() #13
  %4 = tail call ptr @g_type_check_instance_cast(ptr noundef %0, i64 noundef %3) #12
  %5 = tail call ptr @gtk_widget_get_toplevel(ptr noundef %4) #12
  %6 = tail call i64 @gtk_window_get_type() #13
  %7 = tail call ptr @g_type_check_instance_cast(ptr noundef %5, i64 noundef %6) #12
  %8 = tail call ptr @dcgettext(ptr noundef null, ptr noundef nonnull @.str.483, i32 noundef 5) #12
  %9 = tail call ptr @g_type_check_instance_cast(ptr noundef %7, i64 noundef %6) #12
  %10 = tail call ptr @dcgettext(ptr noundef null, ptr noundef nonnull @.str.484, i32 noundef 5) #12
  %11 = tail call ptr @dcgettext(ptr noundef null, ptr noundef nonnull @.str.485, i32 noundef 5) #12
  %12 = tail call ptr @gtk_file_chooser_native_new(ptr noundef %8, ptr noundef %9, i32 noundef 0, ptr noundef %10, ptr noundef %11) #12
  %13 = tail call i64 @gtk_file_chooser_get_type() #13
  %14 = tail call ptr @g_type_check_instance_cast(ptr noundef %12, i64 noundef %13) #12
  %15 = tail call i32 @dt_conf_get_folder_to_file_chooser(ptr noundef nonnull @.str.486, ptr noundef %14) #12
  %16 = tail call ptr @g_type_check_instance_cast(ptr noundef %12, i64 noundef %13) #12
  tail call void @gtk_file_chooser_set_select_multiple(ptr noundef %16, i32 noundef 1) #12
  %17 = tail call ptr @gtk_file_filter_new() #12
  %18 = tail call i64 @gtk_file_filter_get_type() #13
  %19 = tail call ptr @g_type_check_instance_cast(ptr noundef %17, i64 noundef %18) #12
  tail call void @gtk_file_filter_add_pattern(ptr noundef %19, ptr noundef nonnull @.str.487) #12
  tail call void @gtk_file_filter_add_pattern(ptr noundef %19, ptr noundef nonnull @.str.488) #12
  %20 = tail call ptr @dcgettext(ptr noundef null, ptr noundef nonnull @.str.489, i32 noundef 5) #12
  tail call void @gtk_file_filter_set_name(ptr noundef %19, ptr noundef %20) #12
  %21 = tail call ptr @g_type_check_instance_cast(ptr noundef %12, i64 noundef %13) #12
  tail call void @gtk_file_chooser_add_filter(ptr noundef %21, ptr noundef %19) #12
  %22 = tail call ptr @gtk_file_filter_new() #12
  %23 = tail call ptr @g_type_check_instance_cast(ptr noundef %22, i64 noundef %18) #12
  tail call void @gtk_file_filter_add_pattern(ptr noundef %23, ptr noundef nonnull @.str.490) #12
  %24 = tail call ptr @dcgettext(ptr noundef null, ptr noundef nonnull @.str.491, i32 noundef 5) #12
  tail call void @gtk_file_filter_set_name(ptr noundef %23, ptr noundef %24) #12
  %25 = tail call ptr @g_type_check_instance_cast(ptr noundef %12, i64 noundef %13) #12
  tail call void @gtk_file_chooser_add_filter(ptr noundef %25, ptr noundef %23) #12
  %26 = tail call i64 @gtk_native_dialog_get_type() #12
  %27 = tail call ptr @g_type_check_instance_cast(ptr noundef %12, i64 noundef %26) #12
  %28 = tail call i32 @gtk_native_dialog_run(ptr noundef %27) #12
  %29 = icmp eq i32 %28, -3
  br i1 %29, label %30, label %36

30:                                               ; preds = %2
  %31 = tail call ptr @g_type_check_instance_cast(ptr noundef %12, i64 noundef %13) #12
  %32 = tail call ptr @gtk_file_chooser_get_filenames(ptr noundef %31) #12
  tail call void @g_slist_foreach(ptr noundef %32, ptr noundef nonnull @_import_preset_from_file, ptr noundef null) #12
  tail call void @g_slist_free_full(ptr noundef %32, ptr noundef nonnull @g_free) #12
  %33 = tail call i64 @gtk_tree_store_get_type() #13
  %34 = tail call ptr @g_type_check_instance_cast(ptr noundef %1, i64 noundef %33) #12
  tail call void @gtk_tree_store_clear(ptr noundef %34) #12
  tail call fastcc void @tree_insert_presets(ptr noundef %34)
  %35 = tail call ptr @g_type_check_instance_cast(ptr noundef %12, i64 noundef %13) #12
  tail call void @dt_conf_set_folder_from_file_chooser(ptr noundef nonnull @.str.486, ptr noundef %35) #12
  br label %36

36:                                               ; preds = %30, %2
  tail call void @g_object_unref(ptr noundef %12) #12
  ret void
}